     1 00000000                                 ; hello-os
     2 00000000                                 ; TAB=4
     3 00000000                                 
     4  = 0000000A                              CYLS EQU	10		;声明常数,EQU 相当与C中的#define
     5 00000000                                 
     6                                            ORG 0x7c00  ;指明程序的装载地址
     7 00007C00                                 
     8 00007C00                                 ; 以下的记述用于标准FAT12格式的软盘
     9 00007C00                                 
    10 00007C00 EB 4E                             JMP entry
    11 00007C02 90                                db  0x90
    12 00007C03 48 41 52 49 42 4F 54 45           db  "HARIBOTE"
    13 00007C0B 0200                              dw  512
    14 00007C0D 01                                db  1
    15 00007C0E 0001                              dw  1
    16 00007C10 02                                db  2
    17 00007C11 00E0                              dw  224
    18 00007C13 0B40                              dw  2880
    19 00007C15 F0                                db  0xf0
    20 00007C16 0009                              dw  9
    21 00007C18 0012                              dw  18 
    22 00007C1A 0002                              dw  2
    23 00007C1C 00000000                          dd  0
    24 00007C20 00000B40                          dd  2880
    25 00007C24 00 00 29                          db  0,0,0x29
    26 00007C27 FFFFFFFF                          dd  0xffffffff
    27 00007C2B 48 41 52 49 42 4F 54 45 4F 53     db  "HARIBOTEOS "
       00007C35 20 
    28 00007C36 46 41 54 33 32 20 20 20           db  "FAT32   "
    29 00007C3E 00 00 00 00 00 00 00 00 00 00     resb  18
       00007C48 00 00 00 00 00 00 00 00 
    30 00007C50                                 
    31 00007C50                                 ;程序核心
    32 00007C50                                 entry:      ;0x7c50
    33 00007C50 B8 0000                           mov AX,0  ; 初始化寄存器
    34 00007C53 8E D0                             mov SS,AX
    35 00007C55 8E D8                             mov DS,AX
    36 00007C57 8E C0                           	mov ES,AX
    37 00007C59                                 
    38 00007C59 BC 7C00                           mov SP,0x7c00
    39 00007C5C                                 
    40 00007C5C                                 ; 读盘时的参数
    41 00007C5C B8 0820                         	mov	AX,0x0820
    42 00007C5F 8E C0                           	mov	ES,AX
    43 00007C61 B5 00                           	mov	CH,0				;	柱面 0
    44 00007C63 B6 00                           	mov	DH,0				;	磁头 0
    45 00007C65 B1 02                           	mov	CL,2				;	扇区 2
    46 00007C67                                 
    47 00007C67                                 readloop:
    48 00007C67                                 ;试错
    49 00007C67 BE 0000                         	mov SI,0				;	记录失败次数的寄存器
    50 00007C6A                                 
    51 00007C6A                                 retry:
    52 00007C6A                                 ; 读盘指令
    53 00007C6A B4 02                           	mov	AH,0x02			; 读盘指令
    54 00007C6C B0 01                           	mov	AL,1				;	1个扇区
    55 00007C6E BB 0000                         	mov	BX,0
    56 00007C71 B2 00                           	mov	DL,0x00			;	A驱动器
    57 00007C73 CD 13                           	INT	0x13				; 调用磁盘BIOS
    58 00007C75 73 10                           	JNC	next				; Jump if not carry,进位符为0,即没有出错,跳转
    59 00007C77 83 C6 01                        	ADD	SI,1
    60 00007C7A 83 FE 05                        	CMP SI,5
    61 00007C7D 73 32                           	JAE	error				; JAE : Jump if above or equal 
    62 00007C7F                                 
    63 00007C7F                                 ; 复位磁盘状态
    64 00007C7F B4 00                           	mov AH,0x00
    65 00007C81 B2 00                           	mov	DL,0x00			; A 驱动器
    66 00007C83 CD 13                           	INT	0x13
    67 00007C85 EB E3                           	JMP retry
    68 00007C87                                 
    69 00007C87                                 next:
    70 00007C87 8C C0                           	mov	AX,ES				;	把内存地址后移0x20,读取下一个扇区，需要ES+0x20 ,CL +1
    71 00007C89 05 0020                         	add AX,0x0020
    72 00007C8C 8E C0                           	mov	ES,AX				; 没有Add ES,0x20指令，需要借助AX实现
    73 00007C8E 80 C1 01                        	add	CL,1				; 向CL中+1
    74 00007C91 80 F9 12                        	CMP	CL,18				; CL 扇区
    75 00007C94 76 D1                           	JBE	readloop		; CL<=18 跳转至readloop
    76 00007C96 B1 01                           	mov	CL,1
    77 00007C98 80 C6 01                        	add DH,1
    78 00007C9B 80 FE 02                        	cmp	DH,2				;读取磁头2
    79 00007C9E 72 C7                           	JB	readloop		; 如果<2 ，则跳转至readloop
    80 00007CA0 B6 00                           	mov	DH,0				; 读取新的柱面了
    81 00007CA2 80 C5 01                        	add	CH,1				; CH 柱面
    82 00007CA5 80 FD 0A                        	cmp	CH,CYLS
    83 00007CA8 72 BD                           	JB	readloop		; 如果CH < CYLS，则跳转到readloop
    84 00007CAA                                 
    85 00007CAA 88 2E 0FF0                      	mov [0x0ff0],CH	; 将CYLS的值写入到0x0ff0这个地址,4080
    86 00007CAE                                 
    87 00007CAE                                 ;将程序跳到系统文件的开始出，具体的查看笔记文件
    88 00007CAE E9 474F                         	JMP	0xc400
    89 00007CB1                                 
    90 00007CB1                                 
    91 00007CB1                                 
    92 00007CB1                                 error:
    93 00007CB1 BE 7CC9                           mov SI,msg
    94 00007CB4                                 
    95 00007CB4                                 putloop:
    96 00007CB4 8A 04                             mov AL,[SI]
    97 00007CB6 83 C6 01                          add SI,1
    98 00007CB9 3C 00                             cmp AL,0
    99 00007CBB                                 
   100 00007CBB 74 09                             je  fin
   101 00007CBD B4 0E                             mov AH,0x0e ;显示一个文字
   102 00007CBF BB 000F                           mov BX,15   ;指定字符颜色
   103 00007CC2 CD 10                             INT 0x10    ;调用显卡BIOS
   104 00007CC4 EB EE                             jmp putloop
   105 00007CC6                                 
   106 00007CC6                                 fin:
   107 00007CC6 F4                                HLT         ;让CPU停止，等待指令
   108 00007CC7 EB FD                             jmp fin
   109 00007CC9                                 
   110 00007CC9                                 msg:              ;0x7c74
   111 00007CC9 0A 0A                             DB  0x0a, 0x0a  ;换行两次
   112 00007CCB 6C 6F 61 64 20 65 72 72 6F 72     db  "load error"
   113 00007CD5 0A                                db  0x0a        ;换行
   114 00007CD6 00                                db  0
   115 00007CD7                                 
   116 00007CD7 00 00 00 00 00 00 00 00 00 00     times 510-($-$$) db 0
       00007CE1 00 00 00 00 00 00 00 00 00 00 
       00007CEB 00 00 00 00 00 00 00 00 00 00 
       00007CF5 00 00 00 00 00 00 00 00 00 00 
       00007CFF 00 00 00 00 00 00 00 00 00 00 
       00007D09 00 00 00 00 00 00 00 00 00 00 
       00007D13 00 00 00 00 00 00 00 00 00 00 
       00007D1D 00 00 00 00 00 00 00 00 00 00 
       00007D27 00 00 00 00 00 00 00 00 00 00 
       00007D31 00 00 00 00 00 00 00 00 00 00 
       00007D3B 00 00 00 00 00 00 00 00 00 00 
       00007D45 00 00 00 00 00 00 00 00 00 00 
       00007D4F 00 00 00 00 00 00 00 00 00 00 
       00007D59 00 00 00 00 00 00 00 00 00 00 
       00007D63 00 00 00 00 00 00 00 00 00 00 
       00007D6D 00 00 00 00 00 00 00 00 00 00 
       00007D77 00 00 00 00 00 00 00 00 00 00 
       00007D81 00 00 00 00 00 00 00 00 00 00 
       00007D8B 00 00 00 00 00 00 00 00 00 00 
       00007D95 00 00 00 00 00 00 00 00 00 00 
       00007D9F 00 00 00 00 00 00 00 00 00 00 
       00007DA9 00 00 00 00 00 00 00 00 00 00 
       00007DB3 00 00 00 00 00 00 00 00 00 00 
       00007DBD 00 00 00 00 00 00 00 00 00 00 
       00007DC7 00 00 00 00 00 00 00 00 00 00 
       00007DD1 00 00 00 00 00 00 00 00 00 00 
       00007DDB 00 00 00 00 00 00 00 00 00 00 
       00007DE5 00 00 00 00 00 00 00 00 00 00 
       00007DEF 00 00 00 00 00 00 00 00 00 00 
       00007DF9 00 00 00 00 00 
   117 00007DFE 55 AA                             db  0x55,0xaa
